target datalayout = "e-m:e-p270:32:32-p271:32:32-p272:64:64-i64:64-i128:128-f80:128-n8:16:32:64-S128"
target triple = "x86_64-pc-linux-gnu"

@.str.38 = private unnamed_addr constant [7 x i8] c"DELETE\00", align 1
@.str.39 = private unnamed_addr constant [4 x i8] c"GET\00", align 1
@.str.40 = private unnamed_addr constant [5 x i8] c"HEAD\00", align 1
@.str.41 = private unnamed_addr constant [5 x i8] c"POST\00", align 1
@.str.42 = private unnamed_addr constant [4 x i8] c"PUT\00", align 1
@.str.43 = private unnamed_addr constant [8 x i8] c"CONNECT\00", align 1
@.str.44 = private unnamed_addr constant [8 x i8] c"OPTIONS\00", align 1
@.str.45 = private unnamed_addr constant [6 x i8] c"TRACE\00", align 1
@.str.46 = private unnamed_addr constant [5 x i8] c"COPY\00", align 1
@.str.47 = private unnamed_addr constant [5 x i8] c"LOCK\00", align 1
@.str.48 = private unnamed_addr constant [6 x i8] c"MKCOL\00", align 1
@.str.49 = private unnamed_addr constant [5 x i8] c"MOVE\00", align 1
@.str.50 = private unnamed_addr constant [9 x i8] c"PROPFIND\00", align 1
@.str.51 = private unnamed_addr constant [10 x i8] c"PROPPATCH\00", align 1
@.str.52 = private unnamed_addr constant [7 x i8] c"SEARCH\00", align 1
@.str.53 = private unnamed_addr constant [7 x i8] c"UNLOCK\00", align 1
@.str.54 = private unnamed_addr constant [5 x i8] c"BIND\00", align 1
@.str.55 = private unnamed_addr constant [7 x i8] c"REBIND\00", align 1
@.str.56 = private unnamed_addr constant [7 x i8] c"UNBIND\00", align 1
@.str.57 = private unnamed_addr constant [4 x i8] c"ACL\00", align 1
@.str.58 = private unnamed_addr constant [7 x i8] c"REPORT\00", align 1
@.str.59 = private unnamed_addr constant [11 x i8] c"MKACTIVITY\00", align 1
@.str.60 = private unnamed_addr constant [9 x i8] c"CHECKOUT\00", align 1
@.str.61 = private unnamed_addr constant [6 x i8] c"MERGE\00", align 1
@.str.62 = private unnamed_addr constant [9 x i8] c"M-SEARCH\00", align 1
@.str.63 = private unnamed_addr constant [7 x i8] c"NOTIFY\00", align 1
@.str.64 = private unnamed_addr constant [10 x i8] c"SUBSCRIBE\00", align 1
@.str.65 = private unnamed_addr constant [12 x i8] c"UNSUBSCRIBE\00", align 1
@.str.66 = private unnamed_addr constant [6 x i8] c"PATCH\00", align 1
@.str.67 = private unnamed_addr constant [6 x i8] c"PURGE\00", align 1
@.str.68 = private unnamed_addr constant [11 x i8] c"MKCALENDAR\00", align 1
@.str.69 = private unnamed_addr constant [5 x i8] c"LINK\00", align 1
@.str.70 = private unnamed_addr constant [7 x i8] c"UNLINK\00", align 1
@.str.71 = private unnamed_addr constant [7 x i8] c"SOURCE\00", align 1
@.str.72 = private unnamed_addr constant [4 x i8] c"PRI\00", align 1
@.str.73 = private unnamed_addr constant [9 x i8] c"DESCRIBE\00", align 1
@.str.74 = private unnamed_addr constant [9 x i8] c"ANNOUNCE\00", align 1
@.str.75 = private unnamed_addr constant [6 x i8] c"SETUP\00", align 1
@.str.76 = private unnamed_addr constant [5 x i8] c"PLAY\00", align 1
@.str.77 = private unnamed_addr constant [6 x i8] c"PAUSE\00", align 1
@.str.78 = private unnamed_addr constant [9 x i8] c"TEARDOWN\00", align 1
@.str.79 = private unnamed_addr constant [14 x i8] c"GET_PARAMETER\00", align 1
@.str.80 = private unnamed_addr constant [14 x i8] c"SET_PARAMETER\00", align 1
@.str.81 = private unnamed_addr constant [9 x i8] c"REDIRECT\00", align 1
@.str.82 = private unnamed_addr constant [7 x i8] c"RECORD\00", align 1
@.str.83 = private unnamed_addr constant [6 x i8] c"FLUSH\00", align 1
@.str.84 = private unnamed_addr constant [6 x i8] c"QUERY\00", align 1

; Function Attrs: nounwind uwtable
define ptr @llhttp_method_name(i32 noundef %0) #0 {
  %2 = alloca ptr, align 8
  %3 = alloca i32, align 4
  store i32 %0, ptr %3, align 4, !tbaa !8
  %4 = load i32, ptr %3, align 4, !tbaa !8
  switch i32 %4, label %52 [
    i32 0, label %5
    i32 1, label %6
    i32 2, label %7
    i32 3, label %8
    i32 4, label %9
    i32 5, label %10
    i32 6, label %11
    i32 7, label %12
    i32 8, label %13
    i32 9, label %14
    i32 10, label %15
    i32 11, label %16
    i32 12, label %17
    i32 13, label %18
    i32 14, label %19
    i32 15, label %20
    i32 16, label %21
    i32 17, label %22
    i32 18, label %23
    i32 19, label %24
    i32 20, label %25
    i32 21, label %26
    i32 22, label %27
    i32 23, label %28
    i32 24, label %29
    i32 25, label %30
    i32 26, label %31
    i32 27, label %32
    i32 28, label %33
    i32 29, label %34
    i32 30, label %35
    i32 31, label %36
    i32 32, label %37
    i32 33, label %38
    i32 34, label %39
    i32 35, label %40
    i32 36, label %41
    i32 37, label %42
    i32 38, label %43
    i32 39, label %44
    i32 40, label %45
    i32 41, label %46
    i32 42, label %47
    i32 43, label %48
    i32 44, label %49
    i32 45, label %50
    i32 46, label %51
  ]

5:                                                ; preds = %1
  store ptr @.str.38, ptr %2, align 8
  br label %53

6:                                                ; preds = %1
  store ptr @.str.39, ptr %2, align 8
  br label %53

7:                                                ; preds = %1
  store ptr @.str.40, ptr %2, align 8
  br label %53

8:                                                ; preds = %1
  store ptr @.str.41, ptr %2, align 8
  br label %53

9:                                                ; preds = %1
  store ptr @.str.42, ptr %2, align 8
  br label %53

10:                                               ; preds = %1
  store ptr @.str.43, ptr %2, align 8
  br label %53

11:                                               ; preds = %1
  store ptr @.str.44, ptr %2, align 8
  br label %53

12:                                               ; preds = %1
  store ptr @.str.45, ptr %2, align 8
  br label %53

13:                                               ; preds = %1
  store ptr @.str.46, ptr %2, align 8
  br label %53

14:                                               ; preds = %1
  store ptr @.str.47, ptr %2, align 8
  br label %53

15:                                               ; preds = %1
  store ptr @.str.48, ptr %2, align 8
  br label %53

16:                                               ; preds = %1
  store ptr @.str.49, ptr %2, align 8
  br label %53

17:                                               ; preds = %1
  store ptr @.str.50, ptr %2, align 8
  br label %53

18:                                               ; preds = %1
  store ptr @.str.51, ptr %2, align 8
  br label %53

19:                                               ; preds = %1
  store ptr @.str.52, ptr %2, align 8
  br label %53

20:                                               ; preds = %1
  store ptr @.str.53, ptr %2, align 8
  br label %53

21:                                               ; preds = %1
  store ptr @.str.54, ptr %2, align 8
  br label %53

22:                                               ; preds = %1
  store ptr @.str.55, ptr %2, align 8
  br label %53

23:                                               ; preds = %1
  store ptr @.str.56, ptr %2, align 8
  br label %53

24:                                               ; preds = %1
  store ptr @.str.57, ptr %2, align 8
  br label %53

25:                                               ; preds = %1
  store ptr @.str.58, ptr %2, align 8
  br label %53

26:                                               ; preds = %1
  store ptr @.str.59, ptr %2, align 8
  br label %53

27:                                               ; preds = %1
  store ptr @.str.60, ptr %2, align 8
  br label %53

28:                                               ; preds = %1
  store ptr @.str.61, ptr %2, align 8
  br label %53

29:                                               ; preds = %1
  store ptr @.str.62, ptr %2, align 8
  br label %53

30:                                               ; preds = %1
  store ptr @.str.63, ptr %2, align 8
  br label %53

31:                                               ; preds = %1
  store ptr @.str.64, ptr %2, align 8
  br label %53

32:                                               ; preds = %1
  store ptr @.str.65, ptr %2, align 8
  br label %53

33:                                               ; preds = %1
  store ptr @.str.66, ptr %2, align 8
  br label %53

34:                                               ; preds = %1
  store ptr @.str.67, ptr %2, align 8
  br label %53

35:                                               ; preds = %1
  store ptr @.str.68, ptr %2, align 8
  br label %53

36:                                               ; preds = %1
  store ptr @.str.69, ptr %2, align 8
  br label %53

37:                                               ; preds = %1
  store ptr @.str.70, ptr %2, align 8
  br label %53

38:                                               ; preds = %1
  store ptr @.str.71, ptr %2, align 8
  br label %53

39:                                               ; preds = %1
  store ptr @.str.72, ptr %2, align 8
  br label %53

40:                                               ; preds = %1
  store ptr @.str.73, ptr %2, align 8
  br label %53

41:                                               ; preds = %1
  store ptr @.str.74, ptr %2, align 8
  br label %53

42:                                               ; preds = %1
  store ptr @.str.75, ptr %2, align 8
  br label %53

43:                                               ; preds = %1
  store ptr @.str.76, ptr %2, align 8
  br label %53

44:                                               ; preds = %1
  store ptr @.str.77, ptr %2, align 8
  br label %53

45:                                               ; preds = %1
  store ptr @.str.78, ptr %2, align 8
  br label %53

46:                                               ; preds = %1
  store ptr @.str.79, ptr %2, align 8
  br label %53

47:                                               ; preds = %1
  store ptr @.str.80, ptr %2, align 8
  br label %53

48:                                               ; preds = %1
  store ptr @.str.81, ptr %2, align 8
  br label %53

49:                                               ; preds = %1
  store ptr @.str.82, ptr %2, align 8
  br label %53

50:                                               ; preds = %1
  store ptr @.str.83, ptr %2, align 8
  br label %53

51:                                               ; preds = %1
  store ptr @.str.84, ptr %2, align 8
  br label %53

52:                                               ; preds = %1
  call void @abort() #7
  unreachable

53:                                               ; preds = %51, %50, %49, %48, %47, %46, %45, %44, %43, %42, %41, %40, %39, %38, %37, %36, %35, %34, %33, %32, %31, %30, %29, %28, %27, %26, %25, %24, %23, %22, %21, %20, %19, %18, %17, %16, %15, %14, %13, %12, %11, %10, %9, %8, %7, %6, %5
  %54 = load ptr, ptr %2, align 8
  ret ptr %54
}