; Function Attrs: nofree nounwind uwtable
define noundef nonnull ptr @llhttp_method_name(i32 noundef %0) local_unnamed_addr #7 {
  %2 = icmp ult i32 %0, 47
  br i1 %2, label %switch.lookup, label %3

3:                                                ; preds = %1
  tail call void @abort() #11
  unreachable

switch.lookup:                                    ; preds = %1
  %4 = zext nneg i32 %0 to i64
  %switch.gep = getelementptr inbounds nuw [47 x ptr], ptr @switch.table.llhttp_method_name, i64 0, i64 %4
  %switch.load = load ptr, ptr %switch.gep, align 8
  ret ptr %switch.load
}